; Function Attrs: mustprogress nofree norecurse nosync nounwind willreturn memory(argmem: readwrite) uwtable
define dso_local void @GinDataPageAddPostingItem(ptr noundef captures(none) %0, ptr noundef readonly captures(none) %1, i16 noundef zeroext %2) local_unnamed_addr #4 {
  %4 = getelementptr inbounds nuw i8, ptr %0, i64 16
  %5 = load i16, ptr %4, align 4
  %6 = zext i16 %5 to i64
  %7 = getelementptr inbounds nuw i8, ptr %0, i64 %6
  %8 = getelementptr inbounds nuw i8, ptr %7, i64 4
  %9 = load i16, ptr %8, align 4
  %10 = zext i16 %2 to i32
  %11 = icmp eq i16 %2, 0
  %12 = getelementptr inbounds nuw i8, ptr %0, i64 32
  br i1 %11, label %13, label %17

13:                                               ; preds = %3
  %14 = zext i16 %9 to i64
  %15 = mul nuw nsw i64 %14, 10
  %16 = getelementptr inbounds nuw i8, ptr %12, i64 %15
  br label %29

17:                                               ; preds = %3
  %18 = add nsw i32 %10, -1
  %19 = zext nneg i32 %18 to i64
  %20 = mul nuw nsw i64 %19, 10
  %21 = getelementptr inbounds nuw i8, ptr %12, i64 %20
  %22 = zext i16 %9 to i32
  %23 = add nuw nsw i32 %22, 1
  %.not = icmp eq i32 %23, %10
  br i1 %.not, label %29, label %24

24:                                               ; preds = %17
  %25 = getelementptr inbounds nuw i8, ptr %21, i64 10
  %26 = sub nsw i32 %22, %10
  %27 = mul nsw i32 %26, 10
  %narrow = add nsw i32 %27, 10
  %28 = sext i32 %narrow to i64
  tail call void @llvm.memmove.p0.p0.i64(ptr nonnull align 1 %25, ptr nonnull align 1 %21, i64 %28, i1 false)
  br label %29

29:                                               ; preds = %17, %24, %13
  %.0 = phi ptr [ %16, %13 ], [ %21, %24 ], [ %21, %17 ]
  tail call void @llvm.memcpy.p0.p0.i64(ptr noundef nonnull align 1 dereferenceable(10) %.0, ptr noundef nonnull align 2 dereferenceable(10) %1, i64 10, i1 false)
  %30 = add i16 %9, 1
  store i16 %30, ptr %8, align 4
  %31 = mul i16 %30, 10
  %32 = add i16 %31, 32
  %33 = getelementptr inbounds nuw i8, ptr %0, i64 12
  store i16 %32, ptr %33, align 4
  ret void
}